(dp0
S':var2'
p1
S'location.longitude'
p2
sS':var4'
p3
S'data.vehicle_speed'
p4
sS':cst1'
p5
S'<http://automotive.eurecom.fr/simulator/vehicle>'
p6
sS':var3'
p7
S'timestamp'
p8
sS':cst3'
p9
S'<http://automotive.eurecom.fr/simulator/signal/speed>'
p10
sS':cst2'
p11
S'xsd:float'
p12
sS':var1'
p13
S'location.latitude'
p14
s.